target datalayout = "e-m:e-p270:32:32-p271:32:32-p272:64:64-i64:64-i128:128-f80:128-n8:16:32:64-S128"
target triple = "x86_64-pc-linux-gnu"

%class.GrowableArray.0 = type { %class.GrowableArrayWithAllocator.1, %class.GrowableArrayMetadata }
%class.GrowableArrayWithAllocator.1 = type { %class.GrowableArrayView.2 }
%class.GrowableArrayView.2 = type { %class.GrowableArrayBase, ptr }
%class.GrowableArrayBase = type { i32, i32 }
%class.GrowableArrayMetadata = type { i64 }
%class.GrowableArray.3 = type { %class.GrowableArrayWithAllocator.4, %class.GrowableArrayMetadata }
%class.GrowableArrayWithAllocator.4 = type { %class.GrowableArrayView.5 }
%class.GrowableArrayView.5 = type { %class.GrowableArrayBase, ptr }
%class.GrowableArray.15 = type { %class.GrowableArrayWithAllocator.16, %class.GrowableArrayMetadata }
%class.GrowableArrayWithAllocator.16 = type { %class.GrowableArrayView.17 }
%class.GrowableArrayView.17 = type { %class.GrowableArrayBase, ptr }
%class.GrowableArray.21 = type { %class.GrowableArrayWithAllocator.22, %class.GrowableArrayMetadata }
%class.GrowableArrayWithAllocator.22 = type { %class.GrowableArrayView.23 }
%class.GrowableArrayView.23 = type { %class.GrowableArrayBase, ptr }
%class.LIR_InsertionBuffer = type { ptr, %class.GrowableArray.21, %class.GrowableArray.3 }
%class.LinearScanWalker = type { %class.IntervalWalker, i32, i32, i32, i8, [56 x i32], [56 x i32], [56 x ptr], %class.MoveResolver }
%class.IntervalWalker = type { ptr, ptr, ptr, [2 x ptr], [2 x ptr], [2 x ptr], ptr, i32, i32 }
%class.MoveResolver = type <{ ptr, ptr, i32, [4 x i8], %class.LIR_InsertionBuffer, %class.GrowableArray.0, %class.GrowableArray.15, %class.GrowableArray.0, i8, [3 x i8], [56 x i32], [4 x i8] }>

; Function Attrs: mustprogress nounwind uwtable
define hidden noundef i32 @_ZN16LinearScanWalker22find_locked_double_regEiiPb(ptr noundef nonnull align 8 dereferenceable(1384) %0, i32 noundef %1, i32 noundef %2, ptr noundef %3) #1 align 2 {
  %5 = alloca ptr, align 8
  %6 = alloca i32, align 4
  %7 = alloca i32, align 4
  %8 = alloca ptr, align 8
  %9 = alloca i32, align 4
  %10 = alloca i32, align 4
  store ptr %0, ptr %5, align 8
  store i32 %1, ptr %6, align 4
  store i32 %2, ptr %7, align 4
  store ptr %3, ptr %8, align 8
  %11 = load ptr, ptr %5, align 8
  store i32 -1, ptr %9, align 4
  %12 = getelementptr inbounds %class.LinearScanWalker, ptr %11, i32 0, i32 1
  %13 = load i32, ptr %12, align 8
  store i32 %13, ptr %10, align 4
  br label %14

14:                                               ; preds = %55, %4
  %15 = load i32, ptr %10, align 4
  %16 = getelementptr inbounds %class.LinearScanWalker, ptr %11, i32 0, i32 2
  %17 = load i32, ptr %16, align 4
  %18 = icmp slt i32 %15, %17
  br i1 %18, label %19, label %58

19:                                               ; preds = %14
  %20 = getelementptr inbounds %class.LinearScanWalker, ptr %11, i32 0, i32 5
  %21 = load i32, ptr %10, align 4
  %22 = sext i32 %21 to i64
  %23 = getelementptr inbounds [56 x i32], ptr %20, i64 0, i64 %22
  %24 = load i32, ptr %23, align 4
  %25 = load i32, ptr %6, align 4
  %26 = icmp sgt i32 %24, %25
  br i1 %26, label %27, label %54

27:                                               ; preds = %19
  %28 = getelementptr inbounds %class.LinearScanWalker, ptr %11, i32 0, i32 5
  %29 = load i32, ptr %10, align 4
  %30 = add nsw i32 %29, 1
  %31 = sext i32 %30 to i64
  %32 = getelementptr inbounds [56 x i32], ptr %28, i64 0, i64 %31
  %33 = load i32, ptr %32, align 4
  %34 = load i32, ptr %6, align 4
  %35 = icmp sgt i32 %33, %34
  br i1 %35, label %36, label %54

36:                                               ; preds = %27
  %37 = load i32, ptr %9, align 4
  %38 = icmp eq i32 %37, -1
  br i1 %38, label %51, label %39

39:                                               ; preds = %36
  %40 = getelementptr inbounds %class.LinearScanWalker, ptr %11, i32 0, i32 5
  %41 = load i32, ptr %10, align 4
  %42 = sext i32 %41 to i64
  %43 = getelementptr inbounds [56 x i32], ptr %40, i64 0, i64 %42
  %44 = load i32, ptr %43, align 4
  %45 = getelementptr inbounds %class.LinearScanWalker, ptr %11, i32 0, i32 5
  %46 = load i32, ptr %9, align 4
  %47 = sext i32 %46 to i64
  %48 = getelementptr inbounds [56 x i32], ptr %45, i64 0, i64 %47
  %49 = load i32, ptr %48, align 4
  %50 = icmp sgt i32 %44, %49
  br i1 %50, label %51, label %53

51:                                               ; preds = %39, %36
  %52 = load i32, ptr %10, align 4
  store i32 %52, ptr %9, align 4
  br label %53

53:                                               ; preds = %51, %39
  br label %54

54:                                               ; preds = %53, %27, %19
  br label %55

55:                                               ; preds = %54
  %56 = load i32, ptr %10, align 4
  %57 = add nsw i32 %56, 2
  store i32 %57, ptr %10, align 4
  br label %14, !llvm.loop !121

58:                                               ; preds = %14
  %59 = load i32, ptr %9, align 4
  %60 = icmp ne i32 %59, -1
  br i1 %60, label %61, label %80

61:                                               ; preds = %58
  %62 = getelementptr inbounds %class.LinearScanWalker, ptr %11, i32 0, i32 6
  %63 = load i32, ptr %9, align 4
  %64 = sext i32 %63 to i64
  %65 = getelementptr inbounds [56 x i32], ptr %62, i64 0, i64 %64
  %66 = load i32, ptr %65, align 4
  %67 = load i32, ptr %7, align 4
  %68 = icmp sle i32 %66, %67
  br i1 %68, label %78, label %69

69:                                               ; preds = %61
  %70 = getelementptr inbounds %class.LinearScanWalker, ptr %11, i32 0, i32 6
  %71 = load i32, ptr %9, align 4
  %72 = add nsw i32 %71, 1
  %73 = sext i32 %72 to i64
  %74 = getelementptr inbounds [56 x i32], ptr %70, i64 0, i64 %73
  %75 = load i32, ptr %74, align 4
  %76 = load i32, ptr %7, align 4
  %77 = icmp sle i32 %75, %76
  br i1 %77, label %78, label %80

78:                                               ; preds = %69, %61
  %79 = load ptr, ptr %8, align 8
  store i8 1, ptr %79, align 1
  br label %80

80:                                               ; preds = %78, %69, %58
  %81 = load i32, ptr %9, align 4
  ret i32 %81
}