; Function Attrs: mustprogress nofree norecurse nosync nounwind memory(argmem: readwrite) uwtable
define hidden noundef i32 @_ZN16LinearScanWalker22find_locked_double_regEiiPb(ptr nocapture noundef nonnull readonly align 8 dereferenceable(1384) %0, i32 noundef %1, i32 noundef %2, ptr nocapture noundef writeonly %3) local_unnamed_addr #14 align 2 {
  %5 = getelementptr inbounds i8, ptr %0, i64 88
  %6 = load i32, ptr %5, align 8
  %7 = getelementptr inbounds i8, ptr %0, i64 92
  %8 = load i32, ptr %7, align 4
  %9 = icmp slt i32 %6, %8
  br i1 %9, label %.lr.ph, label %._crit_edge.thread

.lr.ph:                                           ; preds = %4
  %10 = getelementptr inbounds i8, ptr %0, i64 104
  %11 = sext i32 %6 to i64
  %12 = sext i32 %8 to i64
  br label %13

13:                                               ; preds = %.lr.ph, %31
  %indvars.iv = phi i64 [ %11, %.lr.ph ], [ %indvars.iv.next, %31 ]
  %.01723 = phi i32 [ -1, %.lr.ph ], [ %.1, %31 ]
  %14 = getelementptr inbounds [56 x i32], ptr %10, i64 0, i64 %indvars.iv
  %15 = load i32, ptr %14, align 4
  %16 = icmp sgt i32 %15, %1
  br i1 %16, label %17, label %31

17:                                               ; preds = %13
  %18 = add nsw i64 %indvars.iv, 1
  %19 = getelementptr inbounds [56 x i32], ptr %10, i64 0, i64 %18
  %20 = load i32, ptr %19, align 4
  %21 = icmp sgt i32 %20, %1
  br i1 %21, label %22, label %31

22:                                               ; preds = %17
  %23 = icmp eq i32 %.01723, -1
  br i1 %23, label %29, label %24

24:                                               ; preds = %22
  %25 = sext i32 %.01723 to i64
  %26 = getelementptr inbounds [56 x i32], ptr %10, i64 0, i64 %25
  %27 = load i32, ptr %26, align 4
  %28 = icmp sgt i32 %15, %27
  br i1 %28, label %29, label %31

29:                                               ; preds = %24, %22
  %30 = trunc nsw i64 %indvars.iv to i32
  br label %31

31:                                               ; preds = %13, %17, %29, %24
  %.1 = phi i32 [ %30, %29 ], [ %.01723, %24 ], [ %.01723, %17 ], [ %.01723, %13 ]
  %indvars.iv.next = add nsw i64 %indvars.iv, 2
  %32 = icmp slt i64 %indvars.iv.next, %12
  br i1 %32, label %13, label %._crit_edge, !llvm.loop !128

._crit_edge:                                      ; preds = %31
  %.not = icmp eq i32 %.1, -1
  br i1 %.not, label %._crit_edge.thread, label %33

33:                                               ; preds = %._crit_edge
  %34 = getelementptr inbounds i8, ptr %0, i64 328
  %35 = sext i32 %.1 to i64
  %36 = getelementptr inbounds [56 x i32], ptr %34, i64 0, i64 %35
  %37 = load i32, ptr %36, align 4
  %.not21 = icmp sgt i32 %37, %2
  br i1 %.not21, label %38, label %43

38:                                               ; preds = %33
  %39 = add nuw nsw i32 %.1, 1
  %40 = sext i32 %39 to i64
  %41 = getelementptr inbounds [56 x i32], ptr %34, i64 0, i64 %40
  %42 = load i32, ptr %41, align 4
  %.not22 = icmp sgt i32 %42, %2
  br i1 %.not22, label %._crit_edge.thread, label %43

43:                                               ; preds = %38, %33
  store i8 1, ptr %3, align 1
  br label %._crit_edge.thread

._crit_edge.thread:                               ; preds = %4, %43, %38, %._crit_edge
  %.017.lcssa28 = phi i32 [ %.1, %43 ], [ %.1, %38 ], [ -1, %._crit_edge ], [ -1, %4 ]
  ret i32 %.017.lcssa28
}